target datalayout = "e-m:e-p270:32:32-p271:32:32-p272:64:64-i64:64-f80:128-n8:16:32:64-S128"
target triple = "x86_64-pc-linux-gnu"

%struct.student = type { [20 x i8], i32, i32, i32, i32, i32, i32 }

@.str = private unnamed_addr constant [4 x i8] c"%d\0A\00", align 1
@.str.1 = private unnamed_addr constant [18 x i8] c"%s %d %d %c %c %d\00", align 1
@stu = common dso_local global [100 x %struct.student] zeroinitializer, align 16
@.str.2 = private unnamed_addr constant [9 x i8] c"%s\0A%d\0A%d\00", align 1

; Function Attrs: noinline nounwind uwtable
define dso_local void @main() #0 {
  %1 = alloca i32, align 4
  %2 = alloca i32, align 4
  %3 = alloca i32, align 4
  %4 = alloca i32, align 4
  %5 = alloca i32, align 4
  store i32 0, i32* %5, align 4
  %6 = call i32 (i8*, ...) @__isoc99_scanf(i8* getelementptr inbounds ([4 x i8], [4 x i8]* @.str, i64 0, i64 0), i32* %1)
  store i32 0, i32* %2, align 4
  br label %7

7:                                                ; preds = %42, %0
  %8 = load i32, i32* %2, align 4
  %9 = load i32, i32* %1, align 4
  %10 = icmp slt i32 %8, %9
  br i1 %10, label %11, label %45

11:                                               ; preds = %7
  %12 = load i32, i32* %2, align 4
  %13 = sext i32 %12 to i64
  %14 = getelementptr inbounds [100 x %struct.student], [100 x %struct.student]* @stu, i64 0, i64 %13
  %15 = getelementptr inbounds %struct.student, %struct.student* %14, i32 0, i32 0
  %16 = getelementptr inbounds [20 x i8], [20 x i8]* %15, i64 0, i64 0
  %17 = load i32, i32* %2, align 4
  %18 = sext i32 %17 to i64
  %19 = getelementptr inbounds [100 x %struct.student], [100 x %struct.student]* @stu, i64 0, i64 %18
  %20 = getelementptr inbounds %struct.student, %struct.student* %19, i32 0, i32 1
  %21 = load i32, i32* %2, align 4
  %22 = sext i32 %21 to i64
  %23 = getelementptr inbounds [100 x %struct.student], [100 x %struct.student]* @stu, i64 0, i64 %22
  %24 = getelementptr inbounds %struct.student, %struct.student* %23, i32 0, i32 2
  %25 = load i32, i32* %2, align 4
  %26 = sext i32 %25 to i64
  %27 = getelementptr inbounds [100 x %struct.student], [100 x %struct.student]* @stu, i64 0, i64 %26
  %28 = getelementptr inbounds %struct.student, %struct.student* %27, i32 0, i32 3
  %29 = load i32, i32* %2, align 4
  %30 = sext i32 %29 to i64
  %31 = getelementptr inbounds [100 x %struct.student], [100 x %struct.student]* @stu, i64 0, i64 %30
  %32 = getelementptr inbounds %struct.student, %struct.student* %31, i32 0, i32 4
  %33 = load i32, i32* %2, align 4
  %34 = sext i32 %33 to i64
  %35 = getelementptr inbounds [100 x %struct.student], [100 x %struct.student]* @stu, i64 0, i64 %34
  %36 = getelementptr inbounds %struct.student, %struct.student* %35, i32 0, i32 5
  %37 = call i32 (i8*, ...) @__isoc99_scanf(i8* getelementptr inbounds ([18 x i8], [18 x i8]* @.str.1, i64 0, i64 0), i8* %16, i32* %20, i32* %24, i32* %28, i32* %32, i32* %36)
  %38 = load i32, i32* %2, align 4
  %39 = sext i32 %38 to i64
  %40 = getelementptr inbounds [100 x %struct.student], [100 x %struct.student]* @stu, i64 0, i64 %39
  %41 = getelementptr inbounds %struct.student, %struct.student* %40, i32 0, i32 6
  store i32 0, i32* %41, align 4
  br label %42

42:                                               ; preds = %11
  %43 = load i32, i32* %2, align 4
  %44 = add nsw i32 %43, 1
  store i32 %44, i32* %2, align 4
  br label %7

45:                                               ; preds = %7
  store i32 0, i32* %2, align 4
  br label %46

46:                                               ; preds = %176, %45
  %47 = load i32, i32* %2, align 4
  %48 = load i32, i32* %1, align 4
  %49 = icmp slt i32 %47, %48
  br i1 %49, label %50, label %179

50:                                               ; preds = %46
  %51 = load i32, i32* %2, align 4
  %52 = sext i32 %51 to i64
  %53 = getelementptr inbounds [100 x %struct.student], [100 x %struct.student]* @stu, i64 0, i64 %52
  %54 = getelementptr inbounds %struct.student, %struct.student* %53, i32 0, i32 1
  %55 = load i32, i32* %54, align 4
  %56 = icmp sgt i32 %55, 80
  br i1 %56, label %57, label %75

57:                                               ; preds = %50
  %58 = load i32, i32* %2, align 4
  %59 = sext i32 %58 to i64
  %60 = getelementptr inbounds [100 x %struct.student], [100 x %struct.student]* @stu, i64 0, i64 %59
  %61 = getelementptr inbounds %struct.student, %struct.student* %60, i32 0, i32 5
  %62 = load i32, i32* %61, align 4
  %63 = icmp sge i32 %62, 1
  br i1 %63, label %64, label %75

64:                                               ; preds = %57
  %65 = load i32, i32* %2, align 4
  %66 = sext i32 %65 to i64
  %67 = getelementptr inbounds [100 x %struct.student], [100 x %struct.student]* @stu, i64 0, i64 %66
  %68 = getelementptr inbounds %struct.student, %struct.student* %67, i32 0, i32 6
  %69 = load i32, i32* %68, align 4
  %70 = add nsw i32 %69, 8000
  %71 = load i32, i32* %2, align 4
  %72 = sext i32 %71 to i64
  %73 = getelementptr inbounds [100 x %struct.student], [100 x %struct.student]* @stu, i64 0, i64 %72
  %74 = getelementptr inbounds %struct.student, %struct.student* %73, i32 0, i32 6
  store i32 %70, i32* %74, align 4
  br label %75

75:                                               ; preds = %64, %57, %50
  %76 = load i32, i32* %2, align 4
  %77 = sext i32 %76 to i64
  %78 = getelementptr inbounds [100 x %struct.student], [100 x %struct.student]* @stu, i64 0, i64 %77
  %79 = getelementptr inbounds %struct.student, %struct.student* %78, i32 0, i32 1
  %80 = load i32, i32* %79, align 4
  %81 = icmp sgt i32 %80, 85
  br i1 %81, label %82, label %100

82:                                               ; preds = %75
  %83 = load i32, i32* %2, align 4
  %84 = sext i32 %83 to i64
  %85 = getelementptr inbounds [100 x %struct.student], [100 x %struct.student]* @stu, i64 0, i64 %84
  %86 = getelementptr inbounds %struct.student, %struct.student* %85, i32 0, i32 2
  %87 = load i32, i32* %86, align 4
  %88 = icmp sgt i32 %87, 80
  br i1 %88, label %89, label %100

89:                                               ; preds = %82
  %90 = load i32, i32* %2, align 4
  %91 = sext i32 %90 to i64
  %92 = getelementptr inbounds [100 x %struct.student], [100 x %struct.student]* @stu, i64 0, i64 %91
  %93 = getelementptr inbounds %struct.student, %struct.student* %92, i32 0, i32 6
  %94 = load i32, i32* %93, align 4
  %95 = add nsw i32 %94, 4000
  %96 = load i32, i32* %2, align 4
  %97 = sext i32 %96 to i64
  %98 = getelementptr inbounds [100 x %struct.student], [100 x %struct.student]* @stu, i64 0, i64 %97
  %99 = getelementptr inbounds %struct.student, %struct.student* %98, i32 0, i32 6
  store i32 %95, i32* %99, align 4
  br label %100

100:                                              ; preds = %89, %82, %75
  %101 = load i32, i32* %2, align 4
  %102 = sext i32 %101 to i64
  %103 = getelementptr inbounds [100 x %struct.student], [100 x %struct.student]* @stu, i64 0, i64 %102
  %104 = getelementptr inbounds %struct.student, %struct.student* %103, i32 0, i32 1
  %105 = load i32, i32* %104, align 4
  %106 = icmp sgt i32 %105, 90
  br i1 %106, label %107, label %118

107:                                              ; preds = %100
  %108 = load i32, i32* %2, align 4
  %109 = sext i32 %108 to i64
  %110 = getelementptr inbounds [100 x %struct.student], [100 x %struct.student]* @stu, i64 0, i64 %109
  %111 = getelementptr inbounds %struct.student, %struct.student* %110, i32 0, i32 6
  %112 = load i32, i32* %111, align 4
  %113 = add nsw i32 %112, 2000
  %114 = load i32, i32* %2, align 4
  %115 = sext i32 %114 to i64
  %116 = getelementptr inbounds [100 x %struct.student], [100 x %struct.student]* @stu, i64 0, i64 %115
  %117 = getelementptr inbounds %struct.student, %struct.student* %116, i32 0, i32 6
  store i32 %113, i32* %117, align 4
  br label %118

118:                                              ; preds = %107, %100
  %119 = load i32, i32* %2, align 4
  %120 = sext i32 %119 to i64
  %121 = getelementptr inbounds [100 x %struct.student], [100 x %struct.student]* @stu, i64 0, i64 %120
  %122 = getelementptr inbounds %struct.student, %struct.student* %121, i32 0, i32 1
  %123 = load i32, i32* %122, align 4
  %124 = icmp sgt i32 %123, 85
  br i1 %124, label %125, label %143

125:                                              ; preds = %118
  %126 = load i32, i32* %2, align 4
  %127 = sext i32 %126 to i64
  %128 = getelementptr inbounds [100 x %struct.student], [100 x %struct.student]* @stu, i64 0, i64 %127
  %129 = getelementptr inbounds %struct.student, %struct.student* %128, i32 0, i32 4
  %130 = load i32, i32* %129, align 4
  %131 = icmp eq i32 %130, 89
  br i1 %131, label %132, label %143

132:                                              ; preds = %125
  %133 = load i32, i32* %2, align 4
  %134 = sext i32 %133 to i64
  %135 = getelementptr inbounds [100 x %struct.student], [100 x %struct.student]* @stu, i64 0, i64 %134
  %136 = getelementptr inbounds %struct.student, %struct.student* %135, i32 0, i32 6
  %137 = load i32, i32* %136, align 4
  %138 = add nsw i32 %137, 1000
  %139 = load i32, i32* %2, align 4
  %140 = sext i32 %139 to i64
  %141 = getelementptr inbounds [100 x %struct.student], [100 x %struct.student]* @stu, i64 0, i64 %140
  %142 = getelementptr inbounds %struct.student, %struct.student* %141, i32 0, i32 6
  store i32 %138, i32* %142, align 4
  br label %143

143:                                              ; preds = %132, %125, %118
  %144 = load i32, i32* %2, align 4
  %145 = sext i32 %144 to i64
  %146 = getelementptr inbounds [100 x %struct.student], [100 x %struct.student]* @stu, i64 0, i64 %145
  %147 = getelementptr inbounds %struct.student, %struct.student* %146, i32 0, i32 2
  %148 = load i32, i32* %147, align 4
  %149 = icmp sgt i32 %148, 80
  br i1 %149, label %150, label %168

150:                                              ; preds = %143
  %151 = load i32, i32* %2, align 4
  %152 = sext i32 %151 to i64
  %153 = getelementptr inbounds [100 x %struct.student], [100 x %struct.student]* @stu, i64 0, i64 %152
  %154 = getelementptr inbounds %struct.student, %struct.student* %153, i32 0, i32 3
  %155 = load i32, i32* %154, align 4
  %156 = icmp eq i32 %155, 89
  br i1 %156, label %157, label %168

157:                                              ; preds = %150
  %158 = load i32, i32* %2, align 4
  %159 = sext i32 %158 to i64
  %160 = getelementptr inbounds [100 x %struct.student], [100 x %struct.student]* @stu, i64 0, i64 %159
  %161 = getelementptr inbounds %struct.student, %struct.student* %160, i32 0, i32 6
  %162 = load i32, i32* %161, align 4
  %163 = add nsw i32 %162, 850
  %164 = load i32, i32* %2, align 4
  %165 = sext i32 %164 to i64
  %166 = getelementptr inbounds [100 x %struct.student], [100 x %struct.student]* @stu, i64 0, i64 %165
  %167 = getelementptr inbounds %struct.student, %struct.student* %166, i32 0, i32 6
  store i32 %163, i32* %167, align 4
  br label %168

168:                                              ; preds = %157, %150, %143
  %169 = load i32, i32* %5, align 4
  %170 = load i32, i32* %2, align 4
  %171 = sext i32 %170 to i64
  %172 = getelementptr inbounds [100 x %struct.student], [100 x %struct.student]* @stu, i64 0, i64 %171
  %173 = getelementptr inbounds %struct.student, %struct.student* %172, i32 0, i32 6
  %174 = load i32, i32* %173, align 4
  %175 = add nsw i32 %169, %174
  store i32 %175, i32* %5, align 4
  br label %176

176:                                              ; preds = %168
  %177 = load i32, i32* %2, align 4
  %178 = add nsw i32 %177, 1
  store i32 %178, i32* %2, align 4
  br label %46

179:                                              ; preds = %46
  %180 = load i32, i32* getelementptr inbounds ([100 x %struct.student], [100 x %struct.student]* @stu, i64 0, i64 0, i32 6), align 8
  store i32 %180, i32* %4, align 4
  store i32 0, i32* %2, align 4
  br label %181

181:                                              ; preds = %202, %179
  %182 = load i32, i32* %2, align 4
  %183 = load i32, i32* %1, align 4
  %184 = icmp slt i32 %182, %183
  br i1 %184, label %185, label %205

185:                                              ; preds = %181
  %186 = load i32, i32* %4, align 4
  %187 = load i32, i32* %2, align 4
  %188 = add nsw i32 %187, 1
  %189 = sext i32 %188 to i64
  %190 = getelementptr inbounds [100 x %struct.student], [100 x %struct.student]* @stu, i64 0, i64 %189
  %191 = getelementptr inbounds %struct.student, %struct.student* %190, i32 0, i32 6
  %192 = load i32, i32* %191, align 4
  %193 = icmp slt i32 %186, %192
  br i1 %193, label %194, label %201

194:                                              ; preds = %185
  %195 = load i32, i32* %2, align 4
  %196 = add nsw i32 %195, 1
  %197 = sext i32 %196 to i64
  %198 = getelementptr inbounds [100 x %struct.student], [100 x %struct.student]* @stu, i64 0, i64 %197
  %199 = getelementptr inbounds %struct.student, %struct.student* %198, i32 0, i32 6
  %200 = load i32, i32* %199, align 4
  store i32 %200, i32* %4, align 4
  br label %201

201:                                              ; preds = %194, %185
  br label %202

202:                                              ; preds = %201
  %203 = load i32, i32* %2, align 4
  %204 = add nsw i32 %203, 1
  store i32 %204, i32* %2, align 4
  br label %181

205:                                              ; preds = %181
  store i32 0, i32* %2, align 4
  br label %206

206:                                              ; preds = %228, %205
  %207 = load i32, i32* %2, align 4
  %208 = load i32, i32* %1, align 4
  %209 = icmp slt i32 %207, %208
  br i1 %209, label %210, label %231

210:                                              ; preds = %206
  %211 = load i32, i32* %2, align 4
  %212 = sext i32 %211 to i64
  %213 = getelementptr inbounds [100 x %struct.student], [100 x %struct.student]* @stu, i64 0, i64 %212
  %214 = getelementptr inbounds %struct.student, %struct.student* %213, i32 0, i32 6
  %215 = load i32, i32* %214, align 4
  %216 = load i32, i32* %4, align 4
  %217 = icmp eq i32 %215, %216
  br i1 %217, label %218, label %227

218:                                              ; preds = %210
  %219 = load i32, i32* %2, align 4
  %220 = sext i32 %219 to i64
  %221 = getelementptr inbounds [100 x %struct.student], [100 x %struct.student]* @stu, i64 0, i64 %220
  %222 = getelementptr inbounds %struct.student, %struct.student* %221, i32 0, i32 0
  %223 = getelementptr inbounds [20 x i8], [20 x i8]* %222, i64 0, i64 0
  %224 = load i32, i32* %4, align 4
  %225 = load i32, i32* %5, align 4
  %226 = call i32 (i8*, ...) @printf(i8* getelementptr inbounds ([9 x i8], [9 x i8]* @.str.2, i64 0, i64 0), i8* %223, i32 %224, i32 %225)
  br label %231

227:                                              ; preds = %210
  br label %228

228:                                              ; preds = %227
  %229 = load i32, i32* %2, align 4
  %230 = add nsw i32 %229, 1
  store i32 %230, i32* %2, align 4
  br label %206

231:                                              ; preds = %218, %206
  ret void
}